target datalayout = "e-m:e-p270:32:32-p271:32:32-p272:64:64-i64:64-i128:128-f80:128-n8:16:32:64-S128"
target triple = "x86_64-pc-linux-gnu"

%struct.curl_mimepart = type { ptr, ptr, i32, i32, ptr, ptr, ptr, ptr, ptr, ptr, ptr, ptr, ptr, ptr, ptr, i64, %struct.mime_state, ptr, %struct.mime_encoder_state, i64 }
%struct.mime_state = type { i32, ptr, i64 }
%struct.mime_encoder_state = type { i64, i64, i64, [256 x i8] }

; Function Attrs: nounwind uwtable
define internal void @cleanup_encoder_state(ptr noundef %0) #0 {
  %2 = alloca ptr, align 8
  store ptr %0, ptr %2, align 8, !tbaa !107
  %3 = load ptr, ptr %2, align 8, !tbaa !107
  %4 = getelementptr inbounds nuw %struct.mime_encoder_state, ptr %3, i32 0, i32 0
  store i64 0, ptr %4, align 8, !tbaa !109
  %5 = load ptr, ptr %2, align 8, !tbaa !107
  %6 = getelementptr inbounds nuw %struct.mime_encoder_state, ptr %5, i32 0, i32 1
  store i64 0, ptr %6, align 8, !tbaa !110
  %7 = load ptr, ptr %2, align 8, !tbaa !107
  %8 = getelementptr inbounds nuw %struct.mime_encoder_state, ptr %7, i32 0, i32 2
  store i64 0, ptr %8, align 8, !tbaa !111
  ret void
}

; Function Attrs: nounwind uwtable
define internal void @cleanup_part_content(ptr noundef %0) #0 {
  %2 = alloca ptr, align 8
  store ptr %0, ptr %2, align 8, !tbaa !4
  %3 = load ptr, ptr %2, align 8, !tbaa !4
  %4 = getelementptr inbounds nuw %struct.curl_mimepart, ptr %3, i32 0, i32 7
  %5 = load ptr, ptr %4, align 8, !tbaa !26
  %6 = icmp ne ptr %5, null
  br i1 %6, label %7, label %14

7:                                                ; preds = %1
  %8 = load ptr, ptr %2, align 8, !tbaa !4
  %9 = getelementptr inbounds nuw %struct.curl_mimepart, ptr %8, i32 0, i32 7
  %10 = load ptr, ptr %9, align 8, !tbaa !26
  %11 = load ptr, ptr %2, align 8, !tbaa !4
  %12 = getelementptr inbounds nuw %struct.curl_mimepart, ptr %11, i32 0, i32 8
  %13 = load ptr, ptr %12, align 8, !tbaa !27
  call void %10(ptr noundef %13)
  br label %14

14:                                               ; preds = %7, %1
  %15 = load ptr, ptr %2, align 8, !tbaa !4
  %16 = getelementptr inbounds nuw %struct.curl_mimepart, ptr %15, i32 0, i32 5
  store ptr null, ptr %16, align 8, !tbaa !28
  %17 = load ptr, ptr %2, align 8, !tbaa !4
  %18 = getelementptr inbounds nuw %struct.curl_mimepart, ptr %17, i32 0, i32 6
  store ptr null, ptr %18, align 8, !tbaa !29
  %19 = load ptr, ptr %2, align 8, !tbaa !4
  %20 = getelementptr inbounds nuw %struct.curl_mimepart, ptr %19, i32 0, i32 7
  store ptr null, ptr %20, align 8, !tbaa !26
  %21 = load ptr, ptr %2, align 8, !tbaa !4
  %22 = load ptr, ptr %2, align 8, !tbaa !4
  %23 = getelementptr inbounds nuw %struct.curl_mimepart, ptr %22, i32 0, i32 8
  store ptr %21, ptr %23, align 8, !tbaa !27
  %24 = load ptr, ptr %2, align 8, !tbaa !4
  %25 = getelementptr inbounds nuw %struct.curl_mimepart, ptr %24, i32 0, i32 4
  store ptr null, ptr %25, align 8, !tbaa !30
  %26 = load ptr, ptr %2, align 8, !tbaa !4
  %27 = getelementptr inbounds nuw %struct.curl_mimepart, ptr %26, i32 0, i32 9
  store ptr null, ptr %27, align 8, !tbaa !31
  %28 = load ptr, ptr %2, align 8, !tbaa !4
  %29 = getelementptr inbounds nuw %struct.curl_mimepart, ptr %28, i32 0, i32 15
  store i64 0, ptr %29, align 8, !tbaa !32
  %30 = load ptr, ptr %2, align 8, !tbaa !4
  %31 = getelementptr inbounds nuw %struct.curl_mimepart, ptr %30, i32 0, i32 18
  call void @cleanup_encoder_state(ptr noundef %31)
  %32 = load ptr, ptr %2, align 8, !tbaa !4
  %33 = getelementptr inbounds nuw %struct.curl_mimepart, ptr %32, i32 0, i32 2
  store i32 0, ptr %33, align 8, !tbaa !33
  %34 = load ptr, ptr %2, align 8, !tbaa !4
  %35 = getelementptr inbounds nuw %struct.curl_mimepart, ptr %34, i32 0, i32 3
  %36 = load i32, ptr %35, align 4, !tbaa !20
  %37 = and i32 %36, -5
  store i32 %37, ptr %35, align 4, !tbaa !20
  %38 = load ptr, ptr %2, align 8, !tbaa !4
  %39 = getelementptr inbounds nuw %struct.curl_mimepart, ptr %38, i32 0, i32 19
  store i64 1, ptr %39, align 8, !tbaa !34
  %40 = load ptr, ptr %2, align 8, !tbaa !4
  %41 = getelementptr inbounds nuw %struct.curl_mimepart, ptr %40, i32 0, i32 16
  %42 = getelementptr inbounds nuw %struct.mime_state, ptr %41, i32 0, i32 0
  store i32 0, ptr %42, align 8, !tbaa !35
  ret void
}

; Function Attrs: nounwind uwtable
define dso_local i32 @curl_mime_data(ptr noundef %0, ptr noundef %1, i64 noundef %2) #0 {
  %4 = alloca i32, align 4
  %5 = alloca ptr, align 8
  %6 = alloca ptr, align 8
  %7 = alloca i64, align 8
  store ptr %0, ptr %5, align 8, !tbaa !4
  store ptr %1, ptr %6, align 8, !tbaa !49
  store i64 %2, ptr %7, align 8, !tbaa !50
  %8 = load ptr, ptr %5, align 8, !tbaa !4
  %9 = icmp ne ptr %8, null
  br i1 %9, label %11, label %10

10:                                               ; preds = %3
  store i32 43, ptr %4, align 4
  br label %49

11:                                               ; preds = %3
  %12 = load ptr, ptr %5, align 8, !tbaa !4
  call void @cleanup_part_content(ptr noundef %12)
  %13 = load ptr, ptr %6, align 8, !tbaa !49
  %14 = icmp ne ptr %13, null
  br i1 %14, label %15, label %48

15:                                               ; preds = %11
  %16 = load i64, ptr %7, align 8, !tbaa !50
  %17 = icmp eq i64 %16, -1
  br i1 %17, label %18, label %21

18:                                               ; preds = %15
  %19 = load ptr, ptr %6, align 8, !tbaa !49
  %20 = call i64 @strlen(ptr noundef %19) #9
  store i64 %20, ptr %7, align 8, !tbaa !50
  br label %21

21:                                               ; preds = %18, %15
  %22 = load ptr, ptr %6, align 8, !tbaa !49
  %23 = load i64, ptr %7, align 8, !tbaa !50
  %24 = call ptr @Curl_memdup0(ptr noundef %22, i64 noundef %23)
  %25 = load ptr, ptr %5, align 8, !tbaa !4
  %26 = getelementptr inbounds nuw %struct.curl_mimepart, ptr %25, i32 0, i32 4
  store ptr %24, ptr %26, align 8, !tbaa !30
  %27 = load ptr, ptr %5, align 8, !tbaa !4
  %28 = getelementptr inbounds nuw %struct.curl_mimepart, ptr %27, i32 0, i32 4
  %29 = load ptr, ptr %28, align 8, !tbaa !30
  %30 = icmp ne ptr %29, null
  br i1 %30, label %32, label %31

31:                                               ; preds = %21
  store i32 27, ptr %4, align 4
  br label %49

32:                                               ; preds = %21
  %33 = load i64, ptr %7, align 8, !tbaa !50
  %34 = load ptr, ptr %5, align 8, !tbaa !4
  %35 = getelementptr inbounds nuw %struct.curl_mimepart, ptr %34, i32 0, i32 15
  store i64 %33, ptr %35, align 8, !tbaa !32
  %36 = load ptr, ptr %5, align 8, !tbaa !4
  %37 = getelementptr inbounds nuw %struct.curl_mimepart, ptr %36, i32 0, i32 5
  store ptr @mime_mem_read, ptr %37, align 8, !tbaa !28
  %38 = load ptr, ptr %5, align 8, !tbaa !4
  %39 = getelementptr inbounds nuw %struct.curl_mimepart, ptr %38, i32 0, i32 6
  store ptr @mime_mem_seek, ptr %39, align 8, !tbaa !29
  %40 = load ptr, ptr %5, align 8, !tbaa !4
  %41 = getelementptr inbounds nuw %struct.curl_mimepart, ptr %40, i32 0, i32 7
  store ptr @mime_mem_free, ptr %41, align 8, !tbaa !26
  %42 = load ptr, ptr %5, align 8, !tbaa !4
  %43 = getelementptr inbounds nuw %struct.curl_mimepart, ptr %42, i32 0, i32 3
  %44 = load i32, ptr %43, align 4, !tbaa !20
  %45 = or i32 %44, 4
  store i32 %45, ptr %43, align 4, !tbaa !20
  %46 = load ptr, ptr %5, align 8, !tbaa !4
  %47 = getelementptr inbounds nuw %struct.curl_mimepart, ptr %46, i32 0, i32 2
  store i32 1, ptr %47, align 8, !tbaa !33
  br label %48

48:                                               ; preds = %32, %11
  store i32 0, ptr %4, align 4
  br label %49

49:                                               ; preds = %48, %31, %10
  %50 = load i32, ptr %4, align 4
  ret i32 %50
}