; Function Attrs: nounwind uwtable
define dso_local range(i32 0, 44) i32 @curl_mime_data(ptr noundef %0, ptr noundef %1, i64 noundef %2) local_unnamed_addr #0 {
  %.not = icmp eq ptr %0, null
  br i1 %.not, label %32, label %4

4:                                                ; preds = %3
  %5 = getelementptr inbounds nuw i8, ptr %0, i64 48
  %6 = load ptr, ptr %5, align 8, !tbaa !4
  %.not.i = icmp eq ptr %6, null
  br i1 %.not.i, label %cleanup_part_content.exit, label %7

7:                                                ; preds = %4
  %8 = getelementptr inbounds nuw i8, ptr %0, i64 56
  %9 = load ptr, ptr %8, align 8, !tbaa !19
  tail call void %6(ptr noundef %9) #18
  br label %cleanup_part_content.exit

cleanup_part_content.exit:                        ; preds = %4, %7
  %10 = getelementptr inbounds nuw i8, ptr %0, i64 32
  %11 = getelementptr inbounds nuw i8, ptr %0, i64 56
  tail call void @llvm.memset.p0.i64(ptr noundef nonnull align 8 dereferenceable(24) %10, i8 0, i64 24, i1 false)
  store ptr %0, ptr %11, align 8, !tbaa !19
  %12 = getelementptr inbounds nuw i8, ptr %0, i64 24
  store ptr null, ptr %12, align 8, !tbaa !20
  %13 = getelementptr inbounds nuw i8, ptr %0, i64 64
  store ptr null, ptr %13, align 8, !tbaa !21
  %14 = getelementptr inbounds nuw i8, ptr %0, i64 112
  store i64 0, ptr %14, align 8, !tbaa !22
  %15 = getelementptr inbounds nuw i8, ptr %0, i64 152
  tail call void @llvm.memset.p0.i64(ptr noundef nonnull align 8 dereferenceable(24) %15, i8 0, i64 24, i1 false)
  %16 = getelementptr inbounds nuw i8, ptr %0, i64 16
  store i32 0, ptr %16, align 8, !tbaa !23
  %17 = getelementptr inbounds nuw i8, ptr %0, i64 20
  %18 = load i32, ptr %17, align 4, !tbaa !24
  %19 = and i32 %18, -5
  store i32 %19, ptr %17, align 4, !tbaa !24
  %20 = getelementptr inbounds nuw i8, ptr %0, i64 432
  store i64 1, ptr %20, align 8, !tbaa !25
  %21 = getelementptr inbounds nuw i8, ptr %0, i64 120
  store i32 0, ptr %21, align 8, !tbaa !26
  %.not20 = icmp eq ptr %1, null
  br i1 %.not20, label %32, label %22

22:                                               ; preds = %cleanup_part_content.exit
  %23 = icmp eq i64 %2, -1
  br i1 %23, label %24, label %26

24:                                               ; preds = %22
  %25 = tail call i64 @strlen(ptr noundef nonnull dereferenceable(1) %1) #19
  br label %26

26:                                               ; preds = %24, %22
  %.0 = phi i64 [ %25, %24 ], [ %2, %22 ]
  %27 = tail call ptr @Curl_memdup0(ptr noundef nonnull %1, i64 noundef %.0) #18
  store ptr %27, ptr %12, align 8, !tbaa !20
  %.not21 = icmp eq ptr %27, null
  br i1 %.not21, label %32, label %28

28:                                               ; preds = %26
  store i64 %.0, ptr %14, align 8, !tbaa !22
  store ptr @mime_mem_read, ptr %10, align 8, !tbaa !39
  %29 = getelementptr inbounds nuw i8, ptr %0, i64 40
  store ptr @mime_mem_seek, ptr %29, align 8, !tbaa !40
  store ptr @mime_mem_free, ptr %5, align 8, !tbaa !4
  %30 = load i32, ptr %17, align 4, !tbaa !24
  %31 = or i32 %30, 4
  store i32 %31, ptr %17, align 4, !tbaa !24
  store i32 1, ptr %16, align 8, !tbaa !23
  br label %32

32:                                               ; preds = %cleanup_part_content.exit, %28, %26, %3
  %.016 = phi i32 [ 43, %3 ], [ 27, %26 ], [ 0, %28 ], [ 0, %cleanup_part_content.exit ]
  ret i32 %.016
}